target datalayout = "e-m:e-p270:32:32-p271:32:32-p272:64:64-i64:64-i128:128-f80:128-n8:16:32:64-S128"
target triple = "x86_64-pc-linux-gnu"

%struct.ident_t = type { i32, i32, i32, i32, ptr }
%struct.Qureg = type { i32, i32, i32, i64, i64, i32, i32, %struct.ComplexArray, %struct.ComplexArray, %struct.ComplexArray, ptr, ptr, ptr, ptr, ptr, ptr }
%struct.ComplexArray = type { ptr, ptr }

@3 = private unnamed_addr constant %struct.ident_t { i32 0, i32 2, i32 0, i32 22, ptr @0 }, align 8

; Function Attrs: nounwind uwtable
define void @densmatr_mixDampingLocal(ptr noundef byval(%struct.Qureg) align 8 %0, i32 noundef %1, double noundef %2) #0 {
  %4 = alloca i32, align 4
  %5 = alloca double, align 8
  %6 = alloca double, align 8
  %7 = alloca double, align 8
  %8 = alloca i64, align 8
  %9 = alloca i64, align 8
  %10 = alloca i64, align 8
  %11 = alloca i64, align 8
  store i32 %1, ptr %4, align 4, !tbaa !8
  store double %2, ptr %5, align 8, !tbaa !10
  call void @llvm.lifetime.start.p0(i64 8, ptr %6) #3
  %12 = load double, ptr %5, align 8, !tbaa !10
  %13 = fsub double 1.000000e+00, %12
  store double %13, ptr %6, align 8, !tbaa !10
  call void @llvm.lifetime.start.p0(i64 8, ptr %7) #3
  %14 = load double, ptr %6, align 8, !tbaa !10
  %15 = call double @sqrt(double noundef %14) #3, !tbaa !8
  store double %15, ptr %7, align 8, !tbaa !10
  call void @llvm.lifetime.start.p0(i64 8, ptr %8) #3
  %16 = getelementptr inbounds nuw %struct.Qureg, ptr %0, i32 0, i32 3
  %17 = load i64, ptr %16, align 8, !tbaa !12
  store i64 %17, ptr %8, align 8, !tbaa !4
  call void @llvm.lifetime.start.p0(i64 8, ptr %9) #3
  %18 = load i32, ptr %4, align 4, !tbaa !8
  %19 = zext i32 %18 to i64
  %20 = shl i64 1, %19
  store i64 %20, ptr %9, align 8, !tbaa !4
  call void @llvm.lifetime.start.p0(i64 8, ptr %10) #3
  %21 = load i32, ptr %4, align 4, !tbaa !8
  %22 = getelementptr inbounds nuw %struct.Qureg, ptr %0, i32 0, i32 1
  %23 = load i32, ptr %22, align 4, !tbaa !18
  %24 = add nsw i32 %21, %23
  %25 = zext i32 %24 to i64
  %26 = shl i64 1, %25
  store i64 %26, ptr %10, align 8, !tbaa !4
  call void @llvm.lifetime.start.p0(i64 8, ptr %11) #3
  %27 = load i64, ptr %9, align 8, !tbaa !4
  %28 = load i64, ptr %10, align 8, !tbaa !4
  %29 = or i64 %27, %28
  store i64 %29, ptr %11, align 8, !tbaa !4
  call void (ptr, i32, ptr, ...) @__kmpc_fork_call(ptr @3, i32 8, ptr @densmatr_mixDampingLocal.omp_outlined, ptr %8, ptr %0, ptr %11, ptr %9, ptr %10, ptr %7, ptr %5, ptr %6)
  call void @llvm.lifetime.end.p0(i64 8, ptr %11) #3
  call void @llvm.lifetime.end.p0(i64 8, ptr %10) #3
  call void @llvm.lifetime.end.p0(i64 8, ptr %9) #3
  call void @llvm.lifetime.end.p0(i64 8, ptr %8) #3
  call void @llvm.lifetime.end.p0(i64 8, ptr %7) #3
  call void @llvm.lifetime.end.p0(i64 8, ptr %6) #3
  ret void
}