; Function Attrs: nounwind uwtable
define void @densmatr_mixDampingLocal(ptr noundef byval(%struct.Qureg) align 8 %0, i32 noundef %1, double noundef %2) local_unnamed_addr #1 {
  %4 = alloca double, align 8
  %5 = alloca double, align 8
  %6 = alloca double, align 8
  %7 = alloca i64, align 8
  %8 = alloca i64, align 8
  %9 = alloca i64, align 8
  %10 = alloca i64, align 8
  store double %2, ptr %4, align 8, !tbaa !4
  call void @llvm.lifetime.start.p0(i64 8, ptr nonnull %5) #4
  %11 = fsub double 1.000000e+00, %2
  store double %11, ptr %5, align 8, !tbaa !4
  call void @llvm.lifetime.start.p0(i64 8, ptr nonnull %6) #4
  %12 = tail call double @sqrt(double noundef %11) #4, !tbaa !18
  store double %12, ptr %6, align 8, !tbaa !4
  call void @llvm.lifetime.start.p0(i64 8, ptr nonnull %7) #4
  %13 = getelementptr inbounds nuw i8, ptr %0, i64 16
  %14 = load i64, ptr %13, align 8, !tbaa !8
  store i64 %14, ptr %7, align 8, !tbaa !16
  call void @llvm.lifetime.start.p0(i64 8, ptr nonnull %8) #4
  %15 = zext nneg i32 %1 to i64
  %16 = shl nuw i64 1, %15
  store i64 %16, ptr %8, align 8, !tbaa !16
  call void @llvm.lifetime.start.p0(i64 8, ptr nonnull %9) #4
  %17 = getelementptr inbounds nuw i8, ptr %0, i64 4
  %18 = load i32, ptr %17, align 4, !tbaa !17
  %19 = add nsw i32 %18, %1
  %20 = zext nneg i32 %19 to i64
  %21 = shl nuw i64 1, %20
  store i64 %21, ptr %9, align 8, !tbaa !16
  call void @llvm.lifetime.start.p0(i64 8, ptr nonnull %10) #4
  %22 = or i64 %21, %16
  store i64 %22, ptr %10, align 8, !tbaa !16
  call void (ptr, i32, ptr, ...) @__kmpc_fork_call(ptr nonnull @3, i32 8, ptr nonnull @densmatr_mixDampingLocal.omp_outlined, ptr nonnull %7, ptr nonnull %0, ptr nonnull %10, ptr nonnull %8, ptr nonnull %9, ptr nonnull %6, ptr nonnull %4, ptr nonnull %5)
  call void @llvm.lifetime.end.p0(i64 8, ptr nonnull %10) #4
  call void @llvm.lifetime.end.p0(i64 8, ptr nonnull %9) #4
  call void @llvm.lifetime.end.p0(i64 8, ptr nonnull %8) #4
  call void @llvm.lifetime.end.p0(i64 8, ptr nonnull %7) #4
  call void @llvm.lifetime.end.p0(i64 8, ptr nonnull %6) #4
  call void @llvm.lifetime.end.p0(i64 8, ptr nonnull %5) #4
  ret void
}